(dp0
S'taghistory'
p1
c__builtin__
set
p2
((lp3
(S'/mnt/music_orig/Rage Against the Machine - Renegades'
p4
tp5
a(S'/mnt/music_orig/Red Hot Chili Peppers - Stadium Arcadium Jupiter [disc1]'
p6
tp7
a(S'/mnt/music_orig/Joel Plaskett - Three/Three'
p8
tp9
a(S'/mnt/music_orig/Miniature Tigers - Tell It To The Volcano'
p10
tp11
a(S'/mnt/music_orig/Red Hot Chili Peppers - Stadium Arcadium Mars [disc2]'
p12
tp13
a(S'/mnt/music_orig/Stabbing Westward - Wither, Blister, Burn & Peel'
p14
tp15
a(S'/mnt/music_orig/Green Day - Dookie'
p16
tp17
a(S'/mnt/music_orig/Florence And The Machine - Ceremonials (Deluxe Version)'
p18
tp19
a(S'/mnt/music_orig/Imogen Heap - Ellipse'
p20
tp21
a(S'/mnt/music_orig/Imogen Heap - Speak For Yourself'
p22
tp23
a(S'/mnt/music_orig/Matthew Good Band - Underdogs'
p24
tp25
a(S'/mnt/music_orig/Nine Inch Nails - Year Zero'
p26
tp27
a(S'/mnt/music_orig/Beck - Midnight Vultures'
p28
tp29
a(S'/mnt/music_orig/Adele - 19 (Deluxe Edition)'
p30
tp31
a(S'/mnt/music_orig/City and Colour - Bring Me Your Love'
p32
tp33
a(S'/mnt/music_orig/Florence And The Machine - Lungs'
p34
tp35
a(S'/mnt/music_orig/The 88 - This Must Be Love'
p36
tp37
a(S'/mnt/music_orig/Matt Costa - Unfamiliar Faces'
p38
tp39
a(S'/mnt/music_orig/Hoobastank - The Reason'
p40
tp41
a(S'/mnt/music_orig/The Postal Service - Give Up'
p42
tp43
a(S'/mnt/music_orig/Beck - One Foot In The Grave'
p44
tp45
a(S'/mnt/music_orig/Cake - Prolonging The Magic'
p46
tp47
a(S'/mnt/music_orig/Weezer - Weezer (Blue Album)'
p48
tp49
a(S'/mnt/music_orig/Avett Brothers - Magpie and the Dandelion'
p50
tp51
a(S'/mnt/music_orig/Walk the Moon - I Want! I Want!'
p52
tp53
a(S'/mnt/music_orig/Imagine Dragons - Continued Silence EP'
p54
tp55
a(S'/mnt/music_orig/Matt Mays + El Torpedo - Matt Mays + El Torpedo'
p56
tp57
a(S"/mnt/music_orig/Daniel Wesley - Driftin'"
p58
tp59
a(S'/mnt/music_orig/The Decemberists - Long Live The King'
p60
tp61
a(S'/mnt/music_orig/The Cat Empire - Steal The Light'
p62
tp63
a(S'/mnt/music_orig/Alt-J - An Awesome Wave'
p64
tp65
a(S'/mnt/music_orig/Beck - The Information (Deluxe Ed. 2007)'
p66
S'/mnt/music_orig/Beck - The Information (Deluxe Ed. 2007)/disc1'
p67
S'/mnt/music_orig/Beck - The Information (Deluxe Ed. 2007)/disc2'
p68
tp69
a(S'/mnt/music_orig/Beck - Guero'
p70
tp71
a(S'/mnt/music_orig/The Tragically Hip - Phantom Power'
p72
tp73
a(S'/mnt/music_orig/Van Morrison - Astral Weeks'
p74
tp75
a(S'/mnt/music_orig/Beck -Stray Blues'
p76
tp77
a(S'/mnt/music_orig/Matt Costa - Songs We Sing'
p78
tp79
a(S"/mnt/music_orig/The Beatles - Sgt Pepper's Lonely Hearts Club Band"
p80
tp81
a(S'/mnt/music_orig/Phantogram - Eyelid Movies'
p82
tp83
a(S'/mnt/music_orig/Easy Star All-Stars - Dub Side Of The Moon'
p84
tp85
a(S'/mnt/music_orig/Rod Stewart - Human'
p86
tp87
a(S'/mnt/music_orig/Built to Spill - There Is No Enemy'
p88
tp89
a(S'/mnt/music_orig/Alexi Murdoch - Time Without Consequence'
p90
tp91
a(S'/mnt/music_orig/Sublime - 40oz to Freedom'
p92
tp93
a(S"/mnt/music_orig/White Rabbits - It's Frightening"
p94
tp95
a(S'/mnt/music_orig/San Cisco - San Cisco'
p96
tp97
a(S'/mnt/music_orig/America - The Definitive Pop Collection (disc 1)'
p98
S'/mnt/music_orig/America - The Definitive Pop Collection (disc 2)'
p99
tp100
a(S'/mnt/music_orig/Marilyn Manson - The Golden Age Of Grotesque'
p101
tp102
a(S"/mnt/music_orig/Hey Ocean! - It's Easier to be Somebody Else"
p103
tp104
a(S'/mnt/music_orig/Kill Bill - vol 1/Kung Fu Stings & SFX'
p105
tp106
a(S'/mnt/music_orig/Rod Stewart - Great American Songbook 2002 (disc 1)'
p107
tp108
a(S'/mnt/music_orig/The Stills - Logic Will Break Your Heart'
p109
tp110
a(S'/mnt/music_orig/Stars - Set Yourself on Fire'
p111
tp112
a(S'/mnt/music_orig/Lorde - The Love Club'
p113
tp114
a(S'/mnt/music_orig/Black Sabbath - The Gillan Tapes'
p115
tp116
a(S'/mnt/music_orig/Soundgarden - Louder Than Love'
p117
tp118
a(S"/mnt/music_orig/Hitchhiker's Guide to the Galaxy/3 - Tertiary Phase"
p119
tp120
a(S'/mnt/music_orig/Linkin Park - Reanimation'
p121
tp122
a(S'/mnt/music_orig/Sufjan Stevens - Come On Feel The Illinoise!'
p123
tp124
a(S'/mnt/music_orig/Hoobastank - Hoobastank'
p125
tp126
a(S'/mnt/music_orig/Dave Matthews Band - Big Whiskey & The GrooGrux King'
p127
tp128
a(S'/mnt/music_orig/Matt Costa - Matt Costa EP'
p129
tp130
a(S'/mnt/music_orig/Michael Franti & Spearhead - All Rebel Rockers'
p131
tp132
a(S'/mnt/music_orig/Soundtrack - XXX  (CD 1)'
p133
tp134
a(S'/mnt/music_orig/Tokyo Police Club - Champ'
p135
tp136
a(S'/mnt/music_orig/Smashing Pumpkins - Teargarden By Kaleidyscope, vol 1 ~ Songs for a Sailor'
p137
tp138
a(S"/mnt/music_orig/Guns N' Roses - Appetite For Destruction"
p139
tp140
a(S'/mnt/music_orig/ACDC - The Razors Edge'
p141
tp142
a(S'/mnt/music_orig/The Head and the Heart - The Head and the Heart'
p143
tp144
a(S'/mnt/music_orig/Smashing Pumpkins - Teargarden By Kaleidyscope, vol 2 ~ The Solstice Bare'
p145
tp146
a(S'/mnt/music_orig/BT - R&R'
p147
S'/mnt/music_orig/BT - R&R/Disc #1'
p148
S'/mnt/music_orig/BT - R&R/Disc #2'
p149
tp150
a(S'/mnt/music_orig/Barenaked Ladies - Maroon'
p151
tp152
a(S'/mnt/music_orig/Modest Mouse - The Fruit That Ate Itself (EP)'
p153
tp154
a(S'/mnt/music_orig/The Guess Who - The Best Of (Remastered)'
p155
tp156
a(S'/mnt/music_orig/Chet Baker - In Paris'
p157
tp158
a(S'/mnt/music_orig/Lenny Kravitz - 5'
p159
tp160
a(S'/mnt/music_orig/Lou Reed - Transformer'
p161
tp162
a(S'/mnt/music_orig/Metric - Old World Underground, Where Are You'
p163
tp164
a(S'/mnt/music_orig/Current Swell - Long Time Ago'
p165
tp166
a(S'/mnt/music_orig/Foo Fighters - One By One'
p167
tp168
a(S'/mnt/music_orig/Franz Ferdinand - Franz Ferdinand'
p169
tp170
a(S'/mnt/music_orig/Avett Brothers - The Carpenter'
p171
tp172
a(S'/mnt/music_orig/The Matrix - Reloaded'
p173
tp174
a(S'/mnt/music_orig/Stabbing Westward - Darkest Days'
p175
tp176
a(S"/mnt/music_orig/Sublime - Robbin' the Hood"
p177
tp178
a(S'/mnt/music_orig/Cake - Fashion Nugget'
p179
tp180
a(S'/mnt/music_orig/ACDC - Back In Black'
p181
tp182
a(S'/mnt/music_orig/Django Django - Django Django'
p183
tp184
a(S"/mnt/music_orig/Idan Raichel - Idan Raichel's Project"
p185
tp186
a(S'/mnt/music_orig/Smashing Pumpkins - MACHINA_The Machines of God'
p187
tp188
a(S'/mnt/music_orig/Wolfmother - Cosmic Egg'
p189
tp190
a(S'/mnt/music_orig/Beth Orton - Comfort of Strangers'
p191
tp192
a(S'/mnt/music_orig/Weezer - The Red Album'
p193
tp194
a(S'/mnt/music_orig/Muse - Origin of Symmetry'
p195
tp196
a(S'/mnt/music_orig/Blind Pilot - We Are The Tide'
p197
tp198
a(S'/mnt/music_orig/Adele - 21'
p199
tp200
a(S'/mnt/music_orig/Soundtrack - Shrek 2'
p201
tp202
a(S'/mnt/music_orig/Jack Johnson - Sleep Through The Static'
p203
tp204
a(S'/mnt/music_orig/Feist - Let It Die'
p205
tp206
a(S'/mnt/music_orig/Dispatch - Bang Bang'
p207
tp208
a(S'/mnt/music_orig/Ozzy Osbourne - Black Rain'
p209
tp210
a(S'/mnt/music_orig/The Tragically Hip - In Between Evolution'
p211
tp212
a(S"/mnt/music_orig/The Arrogant Worms - C'est Cheese"
p213
tp214
a(S'/mnt/music_orig/Fun. - Some Nights'
p215
tp216
a(S'/mnt/music_orig/Soundtrack - Resident Evil (OST)'
p217
tp218
a(S'/mnt/music_orig/The 88 - Not Only But Also'
p219
tp220
a(S'/mnt/music_orig/Sublime - Second Hand Smoke'
p221
tp222
a(S'/mnt/music_orig/Donavon Frankenreiter - Donavon Frankenreiter'
p223
tp224
a(S'/mnt/music_orig/Current Swell - Protect Your Own'
p225
tp226
a(S'/mnt/music_orig/Zero 7 - When It Falls'
p227
tp228
a(S"/mnt/music_orig/U2 - All That You Can't Leave Behind"
p229
tp230
a(S'/mnt/music_orig/Red Hot Chili Peppers - One Hot Minute'
p231
tp232
a(S'/mnt/music_orig/Imagine Dragons - Night Visions (Deluxe Version)'
p233
tp234
a(S'/mnt/music_orig/The Beatles - Yellow Submarine'
p235
tp236
a(S'/mnt/music_orig/The Raconteurs - Broken Boy Soldiers'
p237
tp238
a(S'/mnt/music_orig/Radiohead - The Bends'
p239
tp240
a(S'/mnt/music_orig/Grouplove - Never Trust A Happy Song'
p241
tp242
a(S'/mnt/music_orig/Joel Plaskett - Three'
p243
S'/mnt/music_orig/Joel Plaskett - Three/CD1'
p244
S'/mnt/music_orig/Joel Plaskett - Three/CD2'
p245
S'/mnt/music_orig/Joel Plaskett - Three/CD3'
p246
tp247
a(S'/mnt/music_orig/Dan Mangan - Nice, Nice, Very Nice'
p248
tp249
a(S'/mnt/music_orig/The Tragically Hip - The Tragically Hip'
p250
tp251
a(S'/mnt/music_orig/Weezer - Pinkerton'
p252
tp253
a(S'/mnt/music_orig/Animal Collective - Feels'
p254
tp255
a(S"/mnt/music_orig/Dan Mangan - There Are A Few Things You Should Know... (bits n' bobs ep)"
p256
tp257
a(S'/mnt/music_orig/Jet - Get Born'
p258
tp259
a(S'/mnt/music_orig/The Beatles - The White Album'
p260
S'/mnt/music_orig/The Beatles - The White Album/disc 1'
p261
S'/mnt/music_orig/The Beatles - The White Album/disc 2'
p262
tp263
a(S'/mnt/music_orig/Pink Floyd - The Dark Side of the Moon'
p264
tp265
a(S'/mnt/music_orig/Current Swell - So I Say'
p266
tp267
a(S'/mnt/music_orig/Modest Mouse - Good News For People Who Love Bad News'
p268
tp269
a(S'/mnt/music_orig/Said The Whale - West Coast Christmas EP 2007'
p270
tp271
a(S'/mnt/music_orig/Audioslave - Revelations'
p272
tp273
a(S"/mnt/music_orig/Eyal Golan - - Metzi'ut Acheret"
p274
tp275
a(S'/mnt/music_orig/Linkin Park - Meteora'
p276
tp277
a(S'/mnt/music_orig/Cake - Pressure Chief'
p278
tp279
a(S'/mnt/music_orig/Xavier Rudd - Solace'
p280
tp281
a(S'/mnt/music_orig/Half Moon Run - Dark Eyes'
p282
tp283
a(S'/mnt/music_orig/Said The Whale - Islands Disappear'
p284
tp285
a(S'/mnt/music_orig/Eric Clapton - Pilgrim'
p286
tp287
a(S'/mnt/music_orig/Daniel Wesley - Outlaw'
p288
tp289
a(S'/mnt/music_orig/Matt & Kim - Grand'
p290
tp291
a(S'/mnt/music_orig/Raine Maida - The Hunters Lullaby'
p292
tp293
a(S'/mnt/music_orig/Metric - Fantasies'
p294
tp295
a(S'/mnt/music_orig/Zero 7 - The Garden'
p296
tp297
a(S'/mnt/music_orig/Big Bad Voodoo Daddy - Big Bad Voodoo Daddy'
p298
tp299
a(S'/mnt/music_orig/Pearl Jam - Yield'
p300
tp301
a(S'/mnt/music_orig/Red Hot Chili Peppers - By The Way'
p302
tp303
a(S'/mnt/music_orig/Modest Mouse - Interstate 8 (EP)'
p304
tp305
a(S'/mnt/music_orig/Sunny Day Real Estate - The Rising Tide'
p306
tp307
a(S'/mnt/music_orig/The Nightmare Before Christmas'
p308
tp309
a(S'/mnt/music_orig/Jack Johnson - Sing-A-Longs And Lullabies For The Film Curious George'
p310
tp311
a(S"/mnt/music_orig/Oscar Peterson - Oscar Peterson's Finest Hour"
p312
tp313
a(S'/mnt/music_orig/Beck - Odelay'
p314
tp315
a(S'/mnt/music_orig/Matthew Good Band - Beautiful Midnight'
p316
tp317
a(S'/mnt/music_orig/Green Day - Nimrod'
p318
tp319
a(S'/mnt/music_orig/The Who - Quadrophenia'
p320
S'/mnt/music_orig/The Who - Quadrophenia/disc1'
p321
S'/mnt/music_orig/The Who - Quadrophenia/disc2'
p322
tp323
a(S'/mnt/music_orig/Jurassic 5 - Power In Numbers'
p324
tp325
a(S'/mnt/music_orig/Band Of Horses - Infinite Arms'
p326
tp327
a(S'/mnt/music_orig/Joel Plaskett - Three/One'
p328
tp329
a(S'/mnt/music_orig/Rob Zombie - Hellbilly Deluxe'
p330
tp331
a(S'/mnt/music_orig/Creedence Clearwater Revival - Mardi Gras'
p332
tp333
a(S'/mnt/music_orig/Stars - In Our Bedroom After The War'
p334
tp335
a(S'/mnt/music_orig/Weezer - Raditude'
p336
tp337
a(S'/mnt/music_orig/Sunny Day Real Estate - Diary'
p338
tp339
a(S'/mnt/music_orig/Styx - Paradise Theater'
p340
tp341
a(S'/mnt/music_orig/Rage Against The Machine - Evil Empire'
p342
tp343
a(S'/mnt/music_orig/Mumford and Sons - Sigh No More'
p344
tp345
a(S'/mnt/music_orig/Black Sabbath -  Sabotage'
p346
tp347
a(S'/mnt/music_orig/Green Day - American Idiot'
p348
tp349
a(S'/mnt/music_orig/Weezer - Make Believe'
p350
tp351
a(S'/mnt/music_orig/Tamar Eisenman - 5 Feet 4'
p352
tp353
a(S'/mnt/music_orig/ACDC - Highway to Hell'
p354
tp355
a(S'/mnt/music_orig/Joel Plaskett - Three/Two'
p356
tp357
a(S'/mnt/music_orig/The 88 - The 88'
p358
tp359
a(S'/mnt/music_orig/Devendra Banhart - Cripple Crow'
p360
tp361
a(S'/mnt/music_orig/The Matrix'
p362
tp363
a(S'/mnt/music_orig/Rob Zombie - Educated Horses'
p364
tp365
a(S'/mnt/music_orig/Said The Whale - Little Mountain'
p366
tp367
a(S'/mnt/music_orig/Van Morrison - Still On Top (The Greatest Hits)'
p368
S'/mnt/music_orig/Van Morrison - Still On Top (The Greatest Hits)/disc1'
p369
S'/mnt/music_orig/Van Morrison - Still On Top (The Greatest Hits)/disc2'
p370
tp371
a(S'/mnt/music_orig/Frou Frou - Details'
p372
tp373
a(S'/mnt/music_orig/HaDag Nachash - The Groove Machine'
p374
tp375
a(S'/mnt/music_orig/The 88 - Kind Of Light'
p376
tp377
a(S'/mnt/music_orig/The Stills - Without Feathers'
p378
tp379
a(S'/mnt/music_orig/Franz Ferdinand - You Could Have It So Much Better'
p380
tp381
a(S'/mnt/music_orig/Manu Chao - Clandestino'
p382
tp383
a(S'/mnt/music_orig/Eric Clapton - Back Home'
p384
tp385
a(S"/mnt/music_orig/The Head and the Heart - Let's Be Still"
p386
tp387
a(S'/mnt/music_orig/Swollen Members - Monsters In The Closet'
p388
tp389
a(S'/mnt/music_orig/Muse - The Resistance'
p390
tp391
a(S'/mnt/music_orig/Bloc Party - Silent Alarm'
p392
tp393
a(S'/mnt/music_orig/The Shins - Oh, Inverted World'
p394
tp395
a(S"/mnt/music_orig/Red Hot Chili Peppers - Mother's Milk"
p396
tp397
a(S'/mnt/music_orig/Said The Whale - Taking Abalonia'
p398
tp399
a(S'/mnt/music_orig/Pearl Jam - Binaural'
p400
tp401
a(S'/mnt/music_orig/The Jimi Hendrix Experience - Axis Bold As Love'
p402
tp403
a(S'/mnt/music_orig/Beck - Mutations'
p404
tp405
a(S'/mnt/music_orig/Pink Floyd - The Wall [Remastered]'
p406
tp407
a(S'/mnt/music_orig/Neverending White Lights - Act II - The Blood and the Life Eternal'
p408
tp409
a(S'/mnt/music_orig/The Black Keys - Brothers'
p410
tp411
a(S'/mnt/music_orig/Sublime - Sublime'
p412
tp413
a(S'/mnt/music_orig/Fun - Aim and Ignite (Deluxe Version)'
p414
tp415
a(S'/mnt/music_orig/The Trews - Den Of Thieves'
p416
tp417
a(S'/mnt/music_orig/Stabbing Westward - Stabbing Westward'
p418
tp419
a(S'/mnt/music_orig/Audioslave - Audioslave'
p420
tp421
a(S'/mnt/music_orig/Kings of Leon - Only by the Night'
p422
tp423
a(S'/mnt/music_orig/The Black Eyed Peas - Elephunk'
p424
tp425
a(S'/mnt/music_orig/Jack Johnson - Brushfire Fairytales'
p426
tp427
a(S'/mnt/music_orig/Star Wars The Empire Strikes Back'
p428
tp429
a(S'/mnt/music_orig/Soundtrack - XXX (CD 2)'
p430
tp431
a(S'/mnt/music_orig/Rage Against The Machine - The Battle Of Los Angeles'
p432
tp433
a(S'/mnt/music_orig/Weezer - Green Album'
p434
tp435
a(S'/mnt/music_orig/Swollen Members - Heavy'
p436
tp437
a(S'/mnt/music_orig/The Dears - Missiles'
p438
tp439
a(S'/mnt/music_orig/Feist - Open Season'
p440
tp441
a(S'/mnt/music_orig/Various Artists - Classic Rock Gold Disc 1'
p442
S'/mnt/music_orig/Various Artists - Classic Rock Gold Disc 2'
p443
tp444
a(S'/mnt/music_orig/Across The Universe (disc 1)'
p445
S'/mnt/music_orig/Across The Universe (disc 2)'
p446
tp447
a(S'/mnt/music_orig/Red Hot Chili Peppers - Blood Sugar Sex Magik'
p448
tp449
a(S'/mnt/music_orig/Foo Fighters - The Colour And The Shape'
p450
tp451
a(S'/mnt/music_orig/Jack Johnson - To The Sea'
p452
tp453
a(S'/mnt/music_orig/Beck - Sea Change'
p454
tp455
a(S'/mnt/music_orig/Tegan and Sara - The Con'
p456
tp457
a(S'/mnt/music_orig/Fall Out Boy - Infinity On High'
p458
tp459
a(S'/mnt/music_orig/Muse - Absolution'
p460
tp461
a(S'/mnt/music_orig/Modest Mouse - The Lonesome Crowded West'
p462
tp463
a(S'/mnt/music_orig/Stabbing Westward - Ungod'
p464
tp465
a(S'/mnt/music_orig/The Decemberists - The Crane Wife'
p466
tp467
a(S'/mnt/music_orig/Stabilo Boss - Cupid'
p468
tp469
a(S'/mnt/music_orig/Hinder - Extreme Behavior'
p470
tp471
a(S'/mnt/music_orig/Bedouin Soundclash - Sounding A Mosaic'
p472
tp473
a(S'/mnt/music_orig/Them Crooked Vultures - Them Crooked Vultures'
p474
tp475
a(S'/mnt/music_orig/Muse - Black Holes and Revelations'
p476
tp477
a(S'/mnt/music_orig/The Dears - Gang Of Losers'
p478
tp479
a(S'/mnt/music_orig/Matt & Kim - Sidewalks'
p480
tp481
a(S'/mnt/music_orig/Dan Mangan - Postcards and Daydreaming'
p482
tp483
a(S'/mnt/music_orig/Mumford and Sons - Babel (Deluxe Edition)'
p484
tp485
a(S'/mnt/music_orig/Cake - Motorcade Of Generosity'
p486
tp487
a(S'/mnt/music_orig/Sweatshop Union - Natural Progression'
p488
tp489
a(S'/mnt/music_orig/Mother Mother - Eureka'
p490
tp491
a(S'/mnt/music_orig/Kings of Leon - Come Around Sundown (Deluxe)'
p492
tp493
a(S'/mnt/music_orig/My Second Surprise - Avoidance As A Way Of Life'
p494
tp495
a(S'/mnt/music_orig/Stabilo - Happiness & Disaster'
p496
tp497
a(S'/mnt/music_orig/Kings Of Leon - Because Of The Times'
p498
tp499
a(S'/mnt/music_orig/Frank Sinatra - Gold'
p500
tp501
a(S'/mnt/music_orig/Mellow Mia Music'
p502
tp503
a(S'/mnt/music_orig/Red Hot Chili Peppers - Stadium Arcadium'
p504
S'/mnt/music_orig/Red Hot Chili Peppers - Stadium Arcadium/CD1'
p505
S'/mnt/music_orig/Red Hot Chili Peppers - Stadium Arcadium/CD2'
p506
tp507
a(S'/mnt/music_orig/Said The Whale - West Coast Christmas EP 2009'
p508
tp509
a(S'/mnt/music_orig/Garden State Soundtrack'
p510
tp511
a(S'/mnt/music_orig/Audioslave - Out Of Exile'
p512
tp513
a(S'/mnt/music_orig/The Shins - Wincing the Night Away'
p514
tp515
a(S'/mnt/music_orig/Subliminal - The Light from Zion'
p516
tp517
a(S'/mnt/music_orig/Foo Fighters - There Is Nothing Left To Lose'
p518
tp519
a(S'/mnt/music_orig/Hot Hot Heat - Elevator'
p520
tp521
a(S'/mnt/music_orig/Creedence Clearwater Revival - Willy And The Poorboys'
p522
tp523
a(S'/mnt/music_orig/Bob Marley & The Wailers - Legend'
p524
tp525
a(S'/mnt/music_orig/Daniel Wesley - Sing + Dance'
p526
tp527
a(S'/mnt/music_orig/The 88 - Over And Over'
p528
tp529
a(S'/mnt/music_orig/The Black Keys - Attack and Release'
p530
tp531
a(S'/mnt/music_orig/The Trews - Hope & Ruin'
p532
tp533
a(S'/mnt/music_orig/Beck - Mellow Gold'
p534
tp535
a(S'/mnt/music_orig/Ben Lee - Awake Is The New Sleep'
p536
tp537
a(S'/mnt/music_orig/Barenaked Ladies - Gordon'
p538
tp539
a(S'/mnt/music_orig/Vampire Weekend - Contra'
p540
tp541
a(S'/mnt/music_orig/Nirvana - In Utero'
p542
tp543
a(S'/mnt/music_orig/Dave Matthews Band - Crash'
p544
tp545
a(S'/mnt/music_orig/Nirvana - Bleach'
p546
tp547
a(S'/mnt/music_orig/Beth Orton - Comfort Of Strangers (Bonus Disc)'
p548
tp549
a(S'/mnt/music_orig/K-OS - Joyful Rebellion'
p550
tp551
a(S"/mnt/music_orig/Seun Kuti - Fela's Egypt 80"
p552
tp553
a(S"/mnt/music_orig/Hitchhiker's Guide to the Galaxy/4 - Quandary Phase"
p554
tp555
a(S'/mnt/music_orig/Xavier Rudd - To Let'
p556
tp557
a(S'/mnt/music_orig/Radiohead - OK Computer'
p558
tp559
a(S'/mnt/music_orig/Wolfmother - Wolfmother'
p560
tp561
a(S'/mnt/music_orig/Radiohead - In Rainbows'
p562
tp563
a(S'/mnt/music_orig/Our Lady Peace-Curve'
p564
tp565
a(S'/mnt/music_orig/The Goo Goo Dolls - A Boy Named Goo'
p566
tp567
a(S'/mnt/music_orig/Franz Ferdinand - Tonight'
p568
tp569
a(S'/mnt/music_orig/Jack Johnson - In Between Dreams'
p570
tp571
a(S'/mnt/music_orig/Dave Matthews Band - Away From The World'
p572
tp573
a(S'/mnt/music_orig/Tokyo Police Club - Elephant Shell'
p574
tp575
a(S'/mnt/music_orig/Our Lady Peace - Burn Burn'
p576
tp577
a(S'/mnt/music_orig/Current Swell - Trust Us Now'
p578
tp579
a(S'/mnt/music_orig/The Strokes - Room On Fire'
p580
tp581
a(S'/mnt/music_orig/Built to Spill - Keep It Like A Secret'
p582
tp583
a(S'/mnt/music_orig/Harlem Shakes - Technicolor Health'
p584
tp585
a(S'/mnt/music_orig/Beck - Guerolito'
p586
tp587
a(S'/mnt/music_orig/Ry Cooder - Ch\xc3\xa1vez Ravine'
p588
tp589
a(S'/mnt/music_orig/Julian Plenti - Julian Plenti Is... Skyscraper'
p590
tp591
a(S'/mnt/music_orig/Snow Patrol - Eyes Open'
p592
tp593
a(S'/mnt/music_orig/Styx - The Grand Illusion'
p594
tp595
a(S'/mnt/music_orig/The White Stripes - Get Behind Me Satan'
p596
tp597
a(S'/mnt/music_orig/The Black Eyed Peas - Monkey Business'
p598
tp599
a(S'/mnt/music_orig/Eric Clapton - Clapton Chronicles - The Best Of Eric Clapton'
p600
tp601
a(S'/mnt/music_orig/Red Hot Chili Peppers - Californication'
p602
tp603
a(S'/mnt/music_orig/Avett Brothers - I and Love and You'
p604
tp605
a(S"/mnt/music_orig/Hitchhiker's Guide to the Galaxy/5 - Quintessential Phase"
p606
tp607
a(S'/mnt/music_orig/Dispatch - Zimbabwe_ Live At Madison Square Garden'
p608
tp609
a(S'/mnt/music_orig/The Decemberists - The King Is Dead'
p610
tp611
a(S'/mnt/music_orig/Miles Davis - The Complete Birth of the Cool'
p612
tp613
a(S'/mnt/music_orig/Kings of Leon - Aha Shake Heartbreak'
p614
tp615
a(S'/mnt/music_orig/Cage The Elephant - Cage The Elephant'
p616
tp617
a(S'/mnt/music_orig/Linkin Park & Jay Z - Collision Course'
p618
tp619
a(S'/mnt/music_orig/The Trews - No Time For Later'
p620
tp621
a(S'/mnt/music_orig/Soundgarden - Superunknown'
p622
tp623
a(S'/mnt/music_orig/The Raconteurs - Consolers Of The Lonely'
p624
tp625
a(S'/mnt/music_orig/Dave Matthews Band - Everyday'
p626
tp627
a(S'/mnt/music_orig/The Goo Goo Dolls - Dizzy Up The Girl'
p628
tp629
a(S'/mnt/music_orig/The Who - Meaty Beaty Big And Bouncy'
p630
tp631
a(S'/mnt/music_orig/Jet/Get Born'
p632
tp633
a(S'/mnt/music_orig/Xavier Rudd - Food In The Belly'
p634
tp635
a(S'/mnt/music_orig/Van Morrison - Back On Top'
p636
tp637
a(S"/mnt/music_orig/Fitz and the Tantrums - Pickin' up the Pieces"
p638
tp639
a(S"/mnt/music_orig/The Beatles - A Hard Day's Night"
p640
tp641
a(S'/mnt/music_orig/Michael Kiwanuka - Home Again'
p642
tp643
a(S'/mnt/music_orig/The Stills - Oceans Will Rise'
p644
tp645
a(S'/mnt/music_orig/Whitesnake - 1987 20th Anniversary Ed'
p646
tp647
a(S'/mnt/music_orig/Mother Mother - O My Heart'
p648
tp649
a(S'/mnt/music_orig/Beck - Stereopathetic Soulmanure'
p650
tp651
a(S'/mnt/music_orig/Dave Matthews Band - Busted Stuff'
p652
tp653
a(S'/mnt/music_orig/Metric - Live It Out'
p654
tp655
a(S'/mnt/music_orig/Kate Nash - Made Of Bricks'
p656
tp657
a(S'/mnt/music_orig/Dave Matthews - Some Devil'
p658
tp659
a(S'/mnt/music_orig/The Tragically Hip - In Violet Light'
p660
tp661
a(S'/mnt/music_orig/The 88 - No One Here EP'
p662
tp663
a(S'/mnt/music_orig/Our Lady Peace - Clumsy'
p664
tp665
a(S'/mnt/music_orig/Hot Hot Heat - Make Up The Breakdown'
p666
tp667
a(S'/mnt/music_orig/Eric Clapton - Clapton'
p668
tp669
a(S'/mnt/music_orig/Van Morrison - Avalon Sunset'
p670
tp671
a(S'/mnt/music_orig/Ganga Giri - Beats Around the Bush'
p672
tp673
a(S'/mnt/music_orig/Yael Naim - Yael Naim'
p674
tp675
a(S'/mnt/music_orig/The White Stripes - Icky Thump'
p676
tp677
a(S'/mnt/music_orig/Stars - Heart'
p678
tp679
a(S'/mnt/music_orig/Cake - Comfort Eagle'
p680
tp681
a(S'/mnt/music_orig/Modest Mouse - This Is A Long Drive With Nothing To Think About'
p682
tp683
a(S'/mnt/music_orig/Sergio Mendes - Timeless'
p684
tp685
a(S'/mnt/music_orig/Dave Matthews Band - Stand Up'
p686
tp687
a(S'/mnt/music_orig/Kill Bill - vol 1'
p688
tp689
a(S"/mnt/music_orig/Hitchhiker's Guide to the Galaxy/1-2 - Primary and Secondary Phase"
p690
tp691
a(S'/mnt/music_orig/Barenaked Ladies - Stunt'
p692
tp693
a(S'/mnt/music_orig/Dispatch - Silent Steeples'
p694
tp695
a(S'/mnt/music_orig/The Black Keys - El Camino'
p696
tp697
a(S'/mnt/music_orig/Tokyo Police Club - Elephant Shell (Bonus Disc)'
p698
tp699
a(S'/mnt/music_orig/The Tragically Hip - Music @ Work'
p700
tp701
a(S'/mnt/music_orig/Said The Whale - West Coast Christmas EP 2008'
p702
tp703
atp704
Rp705
sS'tagprogress'
p706
(dp707
s.